target datalayout = "e-m:e-p270:32:32-p271:32:32-p272:64:64-i64:64-i128:128-f80:128-n8:16:32:64-S128"
target triple = "x86_64-pc-linux-gnu"

%"class.icu_77::InputText" = type <{ ptr, i32, [4 x i8], ptr, i8, [7 x i8], ptr, ptr, i32, [4 x i8] }>

; Function Attrs: mustprogress uwtable
define void @_ZN6icu_779InputTextC2ER10UErrorCode(ptr noundef nonnull align 8 dereferenceable(52) %0, ptr noundef nonnull align 4 dereferenceable(4) %1) unnamed_addr #0 align 2 {
  %3 = alloca ptr, align 8
  %4 = alloca ptr, align 8
  store ptr %0, ptr %3, align 8, !tbaa !3
  store ptr %1, ptr %4, align 8, !tbaa !8
  %5 = load ptr, ptr %3, align 8
  %6 = getelementptr inbounds nuw %"class.icu_77::InputText", ptr %5, i32 0, i32 0
  %7 = call noalias ptr @uprv_malloc_77(i64 noundef 8192) #9
  store ptr %7, ptr %6, align 8, !tbaa !9
  %8 = getelementptr inbounds nuw %"class.icu_77::InputText", ptr %5, i32 0, i32 3
  %9 = call noalias ptr @uprv_malloc_77(i64 noundef 512) #9
  store ptr %9, ptr %8, align 8, !tbaa !14
  %10 = getelementptr inbounds nuw %"class.icu_77::InputText", ptr %5, i32 0, i32 6
  store ptr null, ptr %10, align 8, !tbaa !15
  %11 = getelementptr inbounds nuw %"class.icu_77::InputText", ptr %5, i32 0, i32 7
  store ptr null, ptr %11, align 8, !tbaa !16
  %12 = getelementptr inbounds nuw %"class.icu_77::InputText", ptr %5, i32 0, i32 8
  store i32 0, ptr %12, align 8, !tbaa !17
  %13 = getelementptr inbounds nuw %"class.icu_77::InputText", ptr %5, i32 0, i32 0
  %14 = load ptr, ptr %13, align 8, !tbaa !9
  %15 = icmp eq ptr %14, null
  br i1 %15, label %20, label %16

16:                                               ; preds = %2
  %17 = getelementptr inbounds nuw %"class.icu_77::InputText", ptr %5, i32 0, i32 3
  %18 = load ptr, ptr %17, align 8, !tbaa !14
  %19 = icmp eq ptr %18, null
  br i1 %19, label %20, label %22

20:                                               ; preds = %16, %2
  %21 = load ptr, ptr %4, align 8, !tbaa !8
  store i32 7, ptr %21, align 4, !tbaa !18
  br label %22

22:                                               ; preds = %20, %16
  ret void
}