; Function Attrs: mustprogress uwtable
define void @_ZN6icu_779InputTextC2ER10UErrorCode(ptr noundef nonnull align 8 captures(none) dereferenceable(52) initializes((0, 8), (16, 24), (32, 52)) %0, ptr noundef nonnull writeonly align 4 captures(none) dereferenceable(4) %1) unnamed_addr #0 align 2 {
  %3 = tail call noalias dereferenceable_or_null(8192) ptr @uprv_malloc_77(i64 noundef 8192) #13
  store ptr %3, ptr %0, align 8, !tbaa !3
  %4 = getelementptr inbounds nuw i8, ptr %0, i64 16
  %5 = tail call noalias dereferenceable_or_null(512) ptr @uprv_malloc_77(i64 noundef 512) #13
  store ptr %5, ptr %4, align 8, !tbaa !11
  %6 = getelementptr inbounds nuw i8, ptr %0, i64 32
  tail call void @llvm.memset.p0.i64(ptr noundef nonnull align 8 dereferenceable(20) %6, i8 0, i64 20, i1 false)
  %7 = load ptr, ptr %0, align 8, !tbaa !3
  %8 = icmp eq ptr %7, null
  %9 = icmp eq ptr %5, null
  %or.cond = or i1 %9, %8
  br i1 %or.cond, label %10, label %11

10:                                               ; preds = %2
  store i32 7, ptr %1, align 4, !tbaa !12
  br label %11

11:                                               ; preds = %2, %10
  ret void
}